target datalayout = "e-m:e-p270:32:32-p271:32:32-p272:64:64-i64:64-i128:128-f80:128-n8:16:32:64-S128"
target triple = "x86_64-pc-linux-gnu"

%struct.strvec = type { ptr, i64, i64 }
%struct.strbuf = type { i64, i64, ptr }
%struct.oidset = type { %struct.kh_oid_set }
%struct.kh_oid_set = type { i32, i32, i32, i32, ptr, ptr, ptr }
%struct.rev_info = type { ptr, %struct.object_array, ptr, %struct.object_array, %struct.rev_cmdline_info, %struct.list_objects_filter_options, %struct.ref_exclusions, ptr, ptr, ptr, %struct.pathspec, i32, i32, i32, i32, i64, i32, i32, %struct.date_mode, i32, i32, i32, i32, ptr, i32, i32, ptr, ptr, i32, ptr, ptr, %struct.ident_split, ptr, i32, ptr, ptr, ptr, i32, i32, i32, ptr, %struct.grep_opt, ptr, i32, i32, i64, i64, i64, i32, i32, ptr, ptr, ptr, %struct.diff_options, %struct.diff_options, ptr, %struct.decoration, %struct.decoration, %struct.decoration, %struct.display_notes_opt, ptr, ptr, ptr, ptr, ptr, i32, ptr, i32, i32, i32, %struct.decoration, ptr, ptr, ptr, ptr, ptr, ptr, ptr, i32, ptr, i32, ptr, %struct.oidset }
%struct.object_array = type { i32, i32, ptr }
%struct.rev_cmdline_info = type { i32, i32, ptr }
%struct.list_objects_filter_options = type { %struct.strbuf, i32, i8, ptr, i64, i64, i32, i64, i64, ptr }
%struct.ref_exclusions = type { %struct.string_list, %struct.strvec, i8 }
%struct.string_list = type { ptr, i64, i64, i8, ptr }
%struct.pathspec = type { i32, i8, i32, i32, ptr }
%struct.date_mode = type { i32, i32, ptr }
%struct.ident_split = type { ptr, ptr, ptr, ptr, ptr, ptr, ptr, ptr }
%struct.grep_opt = type { ptr, ptr, ptr, ptr, ptr, ptr, i32, i32, i32, i32, i32, i32, i32, i32, i32, i32, i32, i32, i32, i32, i32, i32, i32, i32, i32, i32, i32, i32, i32, i32, i32, i32, [9 x [75 x i8]], i32, i32, i32, i32, i32, i32, i32, ptr, ptr, ptr }
%struct.diff_options = type { ptr, ptr, i32, i32, ptr, i32, ptr, i64, i64, ptr, ptr, ptr, ptr, %struct.diff_flags, i32, i32, i32, i32, i32, i32, i32, i32, i32, i32, i32, i32, i32, i32, i32, i32, i32, i32, i32, i32, i32, i32, ptr, i32, ptr, i32, i32, ptr, i64, i64, i32, i32, i32, i32, ptr, i32, i32, ptr, i32, i32, ptr, ptr, i32, [3 x i8], %struct.pathspec, ptr, ptr, ptr, ptr, ptr, ptr, ptr, ptr, i32, ptr, i32, i32, ptr, ptr, i32 }
%struct.diff_flags = type { i32, i32, i32, i32, i32, i32, i32, i32, i32, i32, i32, i32, i32, i32, i32, i32, i32, i32, i32, i32, i32, i32, i32, i32, i32, i32, i32, i32, i32, i32, i32, i32, i32, i32, i32 }
%struct.display_notes_opt = type { i32, %struct.string_list }
%struct.decoration = type { ptr, i32, i32, ptr }
%struct.bloom_key = type { ptr }
%struct.rev_cmdline_entry = type { ptr, ptr, i32, i32 }

; Function Attrs: nounwind uwtable
define internal void @release_revisions_mailmap(ptr noundef %0) #0 {
  %2 = alloca ptr, align 8
  store ptr %0, ptr %2, align 8, !tbaa !316
  %3 = load ptr, ptr %2, align 8, !tbaa !316
  %4 = icmp ne ptr %3, null
  br i1 %4, label %6, label %5

5:                                                ; preds = %1
  br label %9

6:                                                ; preds = %1
  %7 = load ptr, ptr %2, align 8, !tbaa !316
  call void @clear_mailmap(ptr noundef %7)
  %8 = load ptr, ptr %2, align 8, !tbaa !316
  call void @free(ptr noundef %8) #12
  br label %9

9:                                                ; preds = %6, %5
  ret void
}

; Function Attrs: nounwind uwtable
define internal void @release_revisions_cmdline(ptr noundef %0) #0 {
  %2 = alloca ptr, align 8
  %3 = alloca i32, align 4
  store ptr %0, ptr %2, align 8, !tbaa !309
  call void @llvm.lifetime.start.p0(i64 4, ptr %3) #12
  store i32 0, ptr %3, align 4, !tbaa !9
  br label %4

4:                                                ; preds = %19, %1
  %5 = load i32, ptr %3, align 4, !tbaa !9
  %6 = load ptr, ptr %2, align 8, !tbaa !309
  %7 = getelementptr inbounds nuw %struct.rev_cmdline_info, ptr %6, i32 0, i32 0
  %8 = load i32, ptr %7, align 8, !tbaa !311
  %9 = icmp ult i32 %5, %8
  br i1 %9, label %10, label %22

10:                                               ; preds = %4
  %11 = load ptr, ptr %2, align 8, !tbaa !309
  %12 = getelementptr inbounds nuw %struct.rev_cmdline_info, ptr %11, i32 0, i32 2
  %13 = load ptr, ptr %12, align 8, !tbaa !312
  %14 = load i32, ptr %3, align 4, !tbaa !9
  %15 = zext i32 %14 to i64
  %16 = getelementptr inbounds nuw %struct.rev_cmdline_entry, ptr %13, i64 %15
  %17 = getelementptr inbounds nuw %struct.rev_cmdline_entry, ptr %16, i32 0, i32 1
  %18 = load ptr, ptr %17, align 8, !tbaa !313
  call void @free(ptr noundef %18) #12
  br label %19

19:                                               ; preds = %10
  %20 = load i32, ptr %3, align 4, !tbaa !9
  %21 = add i32 %20, 1
  store i32 %21, ptr %3, align 4, !tbaa !9
  br label %4, !llvm.loop !315

22:                                               ; preds = %4
  %23 = load ptr, ptr %2, align 8, !tbaa !309
  %24 = getelementptr inbounds nuw %struct.rev_cmdline_info, ptr %23, i32 0, i32 2
  %25 = load ptr, ptr %24, align 8, !tbaa !312
  call void @free(ptr noundef %25) #12
  call void @llvm.lifetime.end.p0(i64 4, ptr %3) #12
  ret void
}

; Function Attrs: nounwind uwtable
define dso_local void @release_revisions(ptr noundef %0) #0 {
  %2 = alloca ptr, align 8
  %3 = alloca i32, align 4
  store ptr %0, ptr %2, align 8, !tbaa !88
  %4 = load ptr, ptr %2, align 8, !tbaa !88
  %5 = getelementptr inbounds nuw %struct.rev_info, ptr %4, i32 0, i32 0
  %6 = load ptr, ptr %5, align 8, !tbaa !302
  call void @free_commit_list(ptr noundef %6)
  %7 = load ptr, ptr %2, align 8, !tbaa !88
  %8 = getelementptr inbounds nuw %struct.rev_info, ptr %7, i32 0, i32 73
  %9 = load ptr, ptr %8, align 8, !tbaa !303
  call void @free_commit_list(ptr noundef %9)
  %10 = load ptr, ptr %2, align 8, !tbaa !88
  %11 = getelementptr inbounds nuw %struct.rev_info, ptr %10, i32 0, i32 59
  call void @release_display_notes(ptr noundef %11)
  %12 = load ptr, ptr %2, align 8, !tbaa !88
  %13 = getelementptr inbounds nuw %struct.rev_info, ptr %12, i32 0, i32 1
  call void @object_array_clear(ptr noundef %13)
  %14 = load ptr, ptr %2, align 8, !tbaa !88
  %15 = getelementptr inbounds nuw %struct.rev_info, ptr %14, i32 0, i32 3
  call void @object_array_clear(ptr noundef %15)
  %16 = load ptr, ptr %2, align 8, !tbaa !88
  %17 = getelementptr inbounds nuw %struct.rev_info, ptr %16, i32 0, i32 4
  call void @release_revisions_cmdline(ptr noundef %17)
  %18 = load ptr, ptr %2, align 8, !tbaa !88
  %19 = getelementptr inbounds nuw %struct.rev_info, ptr %18, i32 0, i32 5
  call void @list_objects_filter_release(ptr noundef %19)
  %20 = load ptr, ptr %2, align 8, !tbaa !88
  %21 = getelementptr inbounds nuw %struct.rev_info, ptr %20, i32 0, i32 10
  call void @clear_pathspec(ptr noundef %21)
  %22 = load ptr, ptr %2, align 8, !tbaa !88
  %23 = getelementptr inbounds nuw %struct.rev_info, ptr %22, i32 0, i32 18
  call void @date_mode_release(ptr noundef %23)
  %24 = load ptr, ptr %2, align 8, !tbaa !88
  %25 = getelementptr inbounds nuw %struct.rev_info, ptr %24, i32 0, i32 40
  %26 = load ptr, ptr %25, align 8, !tbaa !304
  call void @release_revisions_mailmap(ptr noundef %26)
  %27 = load ptr, ptr %2, align 8, !tbaa !88
  %28 = getelementptr inbounds nuw %struct.rev_info, ptr %27, i32 0, i32 41
  call void @free_grep_patterns(ptr noundef %28)
  %29 = load ptr, ptr %2, align 8, !tbaa !88
  %30 = getelementptr inbounds nuw %struct.rev_info, ptr %29, i32 0, i32 42
  %31 = load ptr, ptr %30, align 8, !tbaa !264
  call void @graph_clear(ptr noundef %31)
  %32 = load ptr, ptr %2, align 8, !tbaa !88
  %33 = getelementptr inbounds nuw %struct.rev_info, ptr %32, i32 0, i32 53
  call void @diff_free(ptr noundef %33)
  %34 = load ptr, ptr %2, align 8, !tbaa !88
  %35 = getelementptr inbounds nuw %struct.rev_info, ptr %34, i32 0, i32 54
  call void @diff_free(ptr noundef %35)
  %36 = load ptr, ptr %2, align 8, !tbaa !88
  %37 = getelementptr inbounds nuw %struct.rev_info, ptr %36, i32 0, i32 55
  %38 = load ptr, ptr %37, align 8, !tbaa !291
  call void @reflog_walk_info_release(ptr noundef %38)
  %39 = load ptr, ptr %2, align 8, !tbaa !88
  %40 = getelementptr inbounds nuw %struct.rev_info, ptr %39, i32 0, i32 76
  %41 = load ptr, ptr %40, align 8, !tbaa !305
  call void @release_revisions_topo_walk_info(ptr noundef %41)
  %42 = load ptr, ptr %2, align 8, !tbaa !88
  %43 = getelementptr inbounds nuw %struct.rev_info, ptr %42, i32 0, i32 56
  call void @clear_decoration(ptr noundef %43, ptr noundef @free_void_commit_list)
  %44 = load ptr, ptr %2, align 8, !tbaa !88
  %45 = getelementptr inbounds nuw %struct.rev_info, ptr %44, i32 0, i32 57
  call void @clear_decoration(ptr noundef %45, ptr noundef @free)
  %46 = load ptr, ptr %2, align 8, !tbaa !88
  %47 = getelementptr inbounds nuw %struct.rev_info, ptr %46, i32 0, i32 58
  call void @clear_decoration(ptr noundef %47, ptr noundef @free)
  %48 = load ptr, ptr %2, align 8, !tbaa !88
  call void @line_log_free(ptr noundef %48)
  %49 = load ptr, ptr %2, align 8, !tbaa !88
  %50 = getelementptr inbounds nuw %struct.rev_info, ptr %49, i32 0, i32 82
  call void @oidset_clear(ptr noundef %50)
  call void @llvm.lifetime.start.p0(i64 4, ptr %3) #12
  store i32 0, ptr %3, align 4, !tbaa !9
  br label %51

51:                                               ; preds = %65, %1
  %52 = load i32, ptr %3, align 4, !tbaa !9
  %53 = load ptr, ptr %2, align 8, !tbaa !88
  %54 = getelementptr inbounds nuw %struct.rev_info, ptr %53, i32 0, i32 78
  %55 = load i32, ptr %54, align 8, !tbaa !306
  %56 = icmp slt i32 %52, %55
  br i1 %56, label %58, label %57

57:                                               ; preds = %51
  call void @llvm.lifetime.end.p0(i64 4, ptr %3) #12
  br label %68

58:                                               ; preds = %51
  %59 = load ptr, ptr %2, align 8, !tbaa !88
  %60 = getelementptr inbounds nuw %struct.rev_info, ptr %59, i32 0, i32 77
  %61 = load ptr, ptr %60, align 8, !tbaa !307
  %62 = load i32, ptr %3, align 4, !tbaa !9
  %63 = sext i32 %62 to i64
  %64 = getelementptr inbounds %struct.bloom_key, ptr %61, i64 %63
  call void @clear_bloom_key(ptr noundef %64)
  br label %65

65:                                               ; preds = %58
  %66 = load i32, ptr %3, align 4, !tbaa !9
  %67 = add nsw i32 %66, 1
  store i32 %67, ptr %3, align 4, !tbaa !9
  br label %51, !llvm.loop !308

68:                                               ; preds = %57
  br label %69

69:                                               ; preds = %68
  %70 = load ptr, ptr %2, align 8, !tbaa !88
  %71 = getelementptr inbounds nuw %struct.rev_info, ptr %70, i32 0, i32 77
  %72 = load ptr, ptr %71, align 8, !tbaa !307
  call void @free(ptr noundef %72) #12
  %73 = load ptr, ptr %2, align 8, !tbaa !88
  %74 = getelementptr inbounds nuw %struct.rev_info, ptr %73, i32 0, i32 77
  store ptr null, ptr %74, align 8, !tbaa !307
  br label %75

75:                                               ; preds = %69
  %76 = load ptr, ptr %2, align 8, !tbaa !88
  %77 = getelementptr inbounds nuw %struct.rev_info, ptr %76, i32 0, i32 78
  store i32 0, ptr %77, align 8, !tbaa !306
  ret void
}