; Function Attrs: nounwind uwtable
define dso_local void @release_revisions(ptr noundef %0) local_unnamed_addr #2 {
  %2 = load ptr, ptr %0, align 8, !tbaa !271
  tail call void @free_commit_list(ptr noundef %2) #26
  %3 = getelementptr inbounds nuw i8, ptr %0, i64 2896
  %4 = load ptr, ptr %3, align 8, !tbaa !272
  tail call void @free_commit_list(ptr noundef %4) #26
  %5 = getelementptr inbounds nuw i8, ptr %0, i64 2736
  tail call void @release_display_notes(ptr noundef nonnull %5) #26
  %6 = getelementptr inbounds nuw i8, ptr %0, i64 8
  tail call void @object_array_clear(ptr noundef nonnull %6) #26
  %7 = getelementptr inbounds nuw i8, ptr %0, i64 32
  tail call void @object_array_clear(ptr noundef nonnull %7) #26
  %8 = getelementptr inbounds nuw i8, ptr %0, i64 48
  %9 = load i32, ptr %8, align 8, !tbaa !187
  %.not.i = icmp eq i32 %9, 0
  br i1 %.not.i, label %release_revisions_cmdline.exit, label %.lr.ph.i

.lr.ph.i:                                         ; preds = %1
  %10 = getelementptr inbounds nuw i8, ptr %0, i64 56
  br label %11

11:                                               ; preds = %11, %.lr.ph.i
  %indvars.iv.i = phi i64 [ 0, %.lr.ph.i ], [ %indvars.iv.next.i, %11 ]
  %12 = load ptr, ptr %10, align 8, !tbaa !189
  %13 = getelementptr inbounds nuw %struct.rev_cmdline_entry, ptr %12, i64 %indvars.iv.i, i32 1
  %14 = load ptr, ptr %13, align 8, !tbaa !193
  tail call void @free(ptr noundef %14) #26
  %indvars.iv.next.i = add nuw nsw i64 %indvars.iv.i, 1
  %15 = load i32, ptr %8, align 8, !tbaa !187
  %16 = zext i32 %15 to i64
  %17 = icmp samesign ult i64 %indvars.iv.next.i, %16
  br i1 %17, label %11, label %release_revisions_cmdline.exit, !llvm.loop !273

release_revisions_cmdline.exit:                   ; preds = %11, %1
  %18 = getelementptr inbounds nuw i8, ptr %0, i64 56
  %19 = load ptr, ptr %18, align 8, !tbaa !189
  tail call void @free(ptr noundef %19) #26
  %20 = getelementptr inbounds nuw i8, ptr %0, i64 64
  tail call void @list_objects_filter_release(ptr noundef nonnull %20) #26
  %21 = getelementptr inbounds nuw i8, ptr %0, i64 248
  tail call void @clear_pathspec(ptr noundef nonnull %21) #26
  %22 = getelementptr inbounds nuw i8, ptr %0, i64 304
  tail call void @date_mode_release(ptr noundef nonnull %22) #26
  %23 = getelementptr inbounds nuw i8, ptr %0, i64 512
  %24 = load ptr, ptr %23, align 8, !tbaa !274
  %.not.i28 = icmp eq ptr %24, null
  br i1 %.not.i28, label %release_revisions_mailmap.exit, label %25

25:                                               ; preds = %release_revisions_cmdline.exit
  tail call void @clear_mailmap(ptr noundef nonnull %24) #26
  tail call void @free(ptr noundef nonnull %24) #26
  br label %release_revisions_mailmap.exit

release_revisions_mailmap.exit:                   ; preds = %release_revisions_cmdline.exit, %25
  %26 = getelementptr inbounds nuw i8, ptr %0, i64 520
  tail call void @free_grep_patterns(ptr noundef nonnull %26) #26
  %27 = getelementptr inbounds nuw i8, ptr %0, i64 1400
  %28 = load ptr, ptr %27, align 8, !tbaa !227
  tail call void @graph_clear(ptr noundef %28) #26
  %29 = getelementptr inbounds nuw i8, ptr %0, i64 1472
  tail call void @diff_free(ptr noundef nonnull %29) #26
  %30 = getelementptr inbounds nuw i8, ptr %0, i64 2064
  tail call void @diff_free(ptr noundef nonnull %30) #26
  %31 = getelementptr inbounds nuw i8, ptr %0, i64 2656
  %32 = load ptr, ptr %31, align 8, !tbaa !175
  tail call void @reflog_walk_info_release(ptr noundef %32) #26
  %33 = getelementptr inbounds nuw i8, ptr %0, i64 2920
  %34 = load ptr, ptr %33, align 8, !tbaa !275
  tail call fastcc void @release_revisions_topo_walk_info(ptr noundef %34)
  %35 = getelementptr inbounds nuw i8, ptr %0, i64 2664
  tail call void @clear_decoration(ptr noundef nonnull %35, ptr noundef nonnull @free_void_commit_list) #26
  %36 = getelementptr inbounds nuw i8, ptr %0, i64 2688
  tail call void @clear_decoration(ptr noundef nonnull %36, ptr noundef nonnull @free) #26
  %37 = getelementptr inbounds nuw i8, ptr %0, i64 2712
  tail call void @clear_decoration(ptr noundef nonnull %37, ptr noundef nonnull @free) #26
  tail call void @line_log_free(ptr noundef nonnull %0) #26
  %38 = getelementptr inbounds nuw i8, ptr %0, i64 2968
  tail call void @oidset_clear(ptr noundef nonnull %38) #26
  %39 = getelementptr inbounds nuw i8, ptr %0, i64 2936
  %40 = load i32, ptr %39, align 8, !tbaa !276
  %41 = icmp sgt i32 %40, 0
  br i1 %41, label %.lr.ph, label %._crit_edge

.lr.ph:                                           ; preds = %release_revisions_mailmap.exit
  %42 = getelementptr inbounds nuw i8, ptr %0, i64 2928
  br label %45

._crit_edge:                                      ; preds = %45, %release_revisions_mailmap.exit
  %43 = getelementptr inbounds nuw i8, ptr %0, i64 2928
  %44 = load ptr, ptr %43, align 8, !tbaa !277
  tail call void @free(ptr noundef %44) #26
  store ptr null, ptr %43, align 8, !tbaa !277
  store i32 0, ptr %39, align 8, !tbaa !276
  ret void

45:                                               ; preds = %.lr.ph, %45
  %indvars.iv = phi i64 [ 0, %.lr.ph ], [ %indvars.iv.next, %45 ]
  %46 = load ptr, ptr %42, align 8, !tbaa !277
  %47 = getelementptr inbounds nuw %struct.bloom_key, ptr %46, i64 %indvars.iv
  tail call void @clear_bloom_key(ptr noundef %47) #26
  %indvars.iv.next = add nuw nsw i64 %indvars.iv, 1
  %48 = load i32, ptr %39, align 8, !tbaa !276
  %49 = sext i32 %48 to i64
  %50 = icmp slt i64 %indvars.iv.next, %49
  br i1 %50, label %45, label %._crit_edge, !llvm.loop !278
}